; Function Attrs: mustprogress nofree nounwind willreturn memory(read, inaccessiblemem: none) uwtable
define internal noundef ptr @"_ZNSt19_Sp_counted_deleterIPP19_priv_exr_context_tZN7Imf_3_47ContextC1EvE3$_0SaIvELN9__gnu_cxx12_Lock_policyE2EE14_M_get_deleterERKSt9type_info"(ptr noundef nonnull readnone align 8 dereferenceable(24) %0, ptr noundef nonnull readonly align 8 captures(none) dereferenceable(16) %1) unnamed_addr #23 align 2 personality ptr @__gxx_personality_v0 {
  %3 = getelementptr inbounds nuw i8, ptr %1, i64 8
  %4 = load ptr, ptr %3, align 8, !tbaa !203
  %5 = icmp eq ptr %4, @"_ZTSZN7Imf_3_47ContextC1EvE3$_0"
  br i1 %5, label %_ZNKSt9type_infoeqERKS_.exit.thread, label %6

6:                                                ; preds = %2
  %7 = load i8, ptr %4, align 1, !tbaa !23
  %.not.i = icmp eq i8 %7, 42
  br i1 %.not.i, label %_ZNKSt9type_infoeqERKS_.exit.thread3, label %_ZNKSt9type_infoeqERKS_.exit

_ZNKSt9type_infoeqERKS_.exit:                     ; preds = %6
  %8 = tail call i32 @strcmp(ptr noundef nonnull dereferenceable(1) %4, ptr noundef nonnull dereferenceable(28) @"_ZTSZN7Imf_3_47ContextC1EvE3$_0") #30
  %9 = icmp eq i32 %8, 0
  br i1 %9, label %_ZNKSt9type_infoeqERKS_.exit.thread, label %_ZNKSt9type_infoeqERKS_.exit.thread3

_ZNKSt9type_infoeqERKS_.exit.thread:              ; preds = %2, %_ZNKSt9type_infoeqERKS_.exit
  %10 = getelementptr inbounds nuw i8, ptr %0, i64 16
  br label %_ZNKSt9type_infoeqERKS_.exit.thread3

_ZNKSt9type_infoeqERKS_.exit.thread3:             ; preds = %6, %_ZNKSt9type_infoeqERKS_.exit, %_ZNKSt9type_infoeqERKS_.exit.thread
  %11 = phi ptr [ %10, %_ZNKSt9type_infoeqERKS_.exit.thread ], [ null, %_ZNKSt9type_infoeqERKS_.exit ], [ null, %6 ]
  ret ptr %11
}